; Function Attrs: nounwind uwtable
define internal void @_toggle_panel_accel_callback(ptr noundef readonly captures(none) %0) #0 {
  %2 = getelementptr inbounds nuw i8, ptr %0, i64 8
  %3 = load ptr, ptr %2, align 8, !tbaa !147
  %4 = tail call i32 @g_ascii_strcasecmp(ptr noundef %3, ptr noundef nonnull @.str.3) #18
  %.not = icmp eq i32 %4, 0
  br i1 %.not, label %5, label %10

5:                                                ; preds = %1
  %6 = load ptr, ptr getelementptr inbounds nuw (i8, ptr @darktable, i64 104), align 8, !tbaa !15
  %7 = load ptr, ptr %6, align 8, !tbaa !63
  %8 = tail call fastcc i32 @_panel_is_visible(i32 noundef 3)
  %.not33.i = icmp eq i32 %8, 0
  %9 = zext i1 %.not33.i to i32
  tail call void @dt_ui_panel_show(ptr noundef readonly %7, i32 noundef 3, i32 noundef %9, i32 noundef 1)
  br label %25

10:                                               ; preds = %1
  %11 = load ptr, ptr %2, align 8, !tbaa !147
  %12 = tail call i32 @g_ascii_strcasecmp(ptr noundef %11, ptr noundef nonnull @.str.4) #18
  %.not3 = icmp eq i32 %12, 0
  br i1 %.not3, label %13, label %18

13:                                               ; preds = %10
  %14 = load ptr, ptr getelementptr inbounds nuw (i8, ptr @darktable, i64 104), align 8, !tbaa !15
  %15 = load ptr, ptr %14, align 8, !tbaa !63
  %16 = tail call fastcc i32 @_panel_is_visible(i32 noundef 4)
  %.not.i = icmp eq i32 %16, 0
  %17 = zext i1 %.not.i to i32
  tail call void @dt_ui_panel_show(ptr noundef readonly %15, i32 noundef 4, i32 noundef %17, i32 noundef 1)
  br label %25

18:                                               ; preds = %10
  %19 = load ptr, ptr %2, align 8, !tbaa !147
  %20 = tail call i32 @g_ascii_strcasecmp(ptr noundef %19, ptr noundef nonnull @.str.41) #18
  %.not4 = icmp eq i32 %20, 0
  %21 = load ptr, ptr getelementptr inbounds nuw (i8, ptr @darktable, i64 104), align 8, !tbaa !15
  %22 = load ptr, ptr %21, align 8, !tbaa !63
  br i1 %.not4, label %23, label %24

23:                                               ; preds = %18
  tail call fastcc void @_panel_toggle(i32 noundef 0, ptr noundef %22)
  br label %25

24:                                               ; preds = %18
  tail call fastcc void @_panel_toggle(i32 noundef 1, ptr noundef %22)
  br label %25

25:                                               ; preds = %13, %24, %23, %5
  ret void
}